(lp0
(S'cppflags'
p1
ccopy_reg
_reconstructor
p2
(cino.utils
SpaceList
p3
c__builtin__
list
p4
(lp5
S'-mmcu=atmega2560'
p6
aS'-DF_CPU=16000000L'
p7
aS'-DARDUINO=101'
p8
aS'-I/usr/share/arduino/hardware/arduino/cores/arduino'
p9
aS'-ffunction-sections'
p10
aS'-fdata-sections'
p11
aS'-g'
p12
aS'-Os'
p13
aS'-w'
p14
aS'-I/usr/share/arduino/hardware/arduino/variants/mega'
p15
aS'-I/usr/share/arduino/libraries/SoftwareSerial'
p16
aS'-I/usr/share/arduino/hardware/arduino/cores/arduino'
p17
atp18
Rp19
tp20
a(S'cxx'
p21
S'/usr/bin/avr-g++'
p22
tp23
a(S'arduino_libraries_dir'
p24
S'/usr/share/arduino/libraries'
p25
tp26
a(S'avrdude'
p27
S'/usr/share/arduino/hardware/tools/avrdude'
p28
tp29
a(S'ar'
p30
S'/usr/bin/avr-ar'
p31
tp32
a(S'names'
p33
(dp34
S'cpp'
p35
S'%s.cpp'
p36
sS'obj'
p37
S'%s.o'
p38
sS'deps'
p39
S'%s.d'
p40
sS'lib'
p41
S'lib%s.a'
p42
stp43
a(S'ldflags'
p44
g2
(g3
g4
(lp45
g6
aS'-Wl,-Os'
p46
aS'-Wl,--gc-sections'
p47
atp48
Rp49
tp50
a(S'arduino_lib_version'
p51
g2
(cino.environment
Version
p52
c__builtin__
tuple
p53
(I1
I0
I1
tp54
tp55
Rp56
tp57
a(S'objcopy'
p58
S'/usr/bin/avr-objcopy'
p59
tp60
a(S'board_models'
p61
cino.environment
BoardModels
p62
((lp63
(lp64
S'uno'
p65
a(dp66
S'_coredir'
p67
S'/usr/share/arduino/hardware/arduino'
p68
sS'bootloader'
p69
(dp70
S'extended_fuses'
p71
S'0x05'
p72
sS'high_fuses'
p73
S'0xde'
p74
sS'low_fuses'
p75
S'0xff'
p76
sS'lock_bits'
p77
S'0x0F'
p78
sS'file'
p79
S'optiboot_atmega328.hex'
p80
sS'path'
p81
S'optiboot'
p82
sS'unlock_bits'
p83
S'0x3F'
p84
ssS'build'
p85
(dp86
S'core'
p87
S'arduino'
p88
sS'mcu'
p89
S'atmega328p'
p90
sS'f_cpu'
p91
S'16000000L'
p92
sS'variant'
p93
S'standard'
p94
ssS'name'
p95
S'Arduino Uno'
p96
sS'upload'
p97
(dp98
S'protocol'
p99
S'arduino'
p100
sS'maximum_size'
p101
S'32256'
p102
sS'speed'
p103
S'115200'
p104
ssaa(lp105
S'atmega328'
p106
a(dp107
g67
S'/usr/share/arduino/hardware/arduino'
p108
sS'bootloader'
p109
(dp110
S'extended_fuses'
p111
S'0x05'
p112
sS'high_fuses'
p113
S'0xDA'
p114
sS'low_fuses'
p115
S'0xFF'
p116
sS'lock_bits'
p117
S'0x0F'
p118
sS'file'
p119
S'ATmegaBOOT_168_atmega328.hex'
p120
sS'path'
p121
S'atmega'
p122
sS'unlock_bits'
p123
S'0x3F'
p124
ssS'build'
p125
(dp126
S'core'
p127
S'arduino'
p128
sS'mcu'
p129
S'atmega328p'
p130
sS'f_cpu'
p131
S'16000000L'
p132
sS'variant'
p133
S'standard'
p134
ssS'name'
p135
S'Arduino Duemilanove w/ ATmega328'
p136
sS'upload'
p137
(dp138
S'protocol'
p139
S'arduino'
p140
sS'maximum_size'
p141
S'30720'
p142
sS'speed'
p143
S'57600'
p144
ssaa(lp145
S'diecimila'
p146
a(dp147
g67
S'/usr/share/arduino/hardware/arduino'
p148
sS'bootloader'
p149
(dp150
S'extended_fuses'
p151
S'0x00'
p152
sS'high_fuses'
p153
S'0xdd'
p154
sS'low_fuses'
p155
S'0xff'
p156
sS'lock_bits'
p157
S'0x0F'
p158
sS'file'
p159
S'ATmegaBOOT_168_diecimila.hex'
p160
sS'path'
p161
S'atmega'
p162
sS'unlock_bits'
p163
S'0x3F'
p164
ssS'build'
p165
(dp166
S'core'
p167
S'arduino'
p168
sS'mcu'
p169
S'atmega168'
p170
sS'f_cpu'
p171
S'16000000L'
p172
sS'variant'
p173
S'standard'
p174
ssS'name'
p175
S'Arduino Diecimila or Duemilanove w/ ATmega168'
p176
sS'upload'
p177
(dp178
S'protocol'
p179
S'arduino'
p180
sS'maximum_size'
p181
S'14336'
p182
sS'speed'
p183
S'19200'
p184
ssaa(lp185
S'nano328'
p186
a(dp187
g67
S'/usr/share/arduino/hardware/arduino'
p188
sS'bootloader'
p189
(dp190
S'extended_fuses'
p191
S'0x05'
p192
sS'high_fuses'
p193
S'0xDA'
p194
sS'low_fuses'
p195
S'0xFF'
p196
sS'lock_bits'
p197
S'0x0F'
p198
sS'file'
p199
S'ATmegaBOOT_168_atmega328.hex'
p200
sS'path'
p201
S'atmega'
p202
sS'unlock_bits'
p203
S'0x3F'
p204
ssS'build'
p205
(dp206
S'core'
p207
S'arduino'
p208
sS'mcu'
p209
S'atmega328p'
p210
sS'f_cpu'
p211
S'16000000L'
p212
sS'variant'
p213
S'eightanaloginputs'
p214
ssS'name'
p215
S'Arduino Nano w/ ATmega328'
p216
sS'upload'
p217
(dp218
S'protocol'
p219
S'arduino'
p220
sS'maximum_size'
p221
S'30720'
p222
sS'speed'
p223
S'57600'
p224
ssaa(lp225
S'nano'
p226
a(dp227
g67
S'/usr/share/arduino/hardware/arduino'
p228
sS'bootloader'
p229
(dp230
S'extended_fuses'
p231
S'0x00'
p232
sS'high_fuses'
p233
S'0xdd'
p234
sS'low_fuses'
p235
S'0xff'
p236
sS'lock_bits'
p237
S'0x0F'
p238
sS'file'
p239
S'ATmegaBOOT_168_diecimila.hex'
p240
sS'path'
p241
S'atmega'
p242
sS'unlock_bits'
p243
S'0x3F'
p244
ssS'build'
p245
(dp246
S'core'
p247
S'arduino'
p248
sS'mcu'
p249
S'atmega168'
p250
sS'f_cpu'
p251
S'16000000L'
p252
sS'variant'
p253
S'eightanaloginputs'
p254
ssS'name'
p255
S'Arduino Nano w/ ATmega168'
p256
sS'upload'
p257
(dp258
S'protocol'
p259
S'arduino'
p260
sS'maximum_size'
p261
S'14336'
p262
sS'speed'
p263
S'19200'
p264
ssaa(lp265
S'mega2560'
p266
a(dp267
g67
S'/usr/share/arduino/hardware/arduino'
p268
sS'bootloader'
p269
(dp270
S'extended_fuses'
p271
S'0xFD'
p272
sS'high_fuses'
p273
S'0xD8'
p274
sS'low_fuses'
p275
S'0xFF'
p276
sS'lock_bits'
p277
S'0x0F'
p278
sS'file'
p279
S'stk500boot_v2_mega2560.hex'
p280
sS'path'
p281
S'stk500v2'
p282
sS'unlock_bits'
p283
S'0x3F'
p284
ssS'build'
p285
(dp286
S'core'
p287
S'arduino'
p288
sS'mcu'
p289
S'atmega2560'
p290
sS'f_cpu'
p291
S'16000000L'
p292
sS'variant'
p293
S'mega'
p294
ssS'name'
p295
S'Arduino Mega 2560 or Mega ADK'
p296
sS'upload'
p297
(dp298
S'protocol'
p299
S'stk500v2'
p300
sS'maximum_size'
p301
S'258048'
p302
sS'speed'
p303
S'115200'
p304
ssaa(lp305
S'mega'
p306
a(dp307
g67
S'/usr/share/arduino/hardware/arduino'
p308
sS'bootloader'
p309
(dp310
S'extended_fuses'
p311
S'0xF5'
p312
sS'high_fuses'
p313
S'0xDA'
p314
sS'low_fuses'
p315
S'0xFF'
p316
sS'lock_bits'
p317
S'0x0F'
p318
sS'file'
p319
S'ATmegaBOOT_168_atmega1280.hex'
p320
sS'path'
p321
S'atmega'
p322
sS'unlock_bits'
p323
S'0x3F'
p324
ssS'build'
p325
(dp326
S'core'
p327
S'arduino'
p328
sS'mcu'
p329
S'atmega1280'
p330
sS'f_cpu'
p331
S'16000000L'
p332
sS'variant'
p333
S'mega'
p334
ssS'name'
p335
S'Arduino Mega (ATmega1280)'
p336
sS'upload'
p337
(dp338
S'protocol'
p339
S'arduino'
p340
sS'maximum_size'
p341
S'126976'
p342
sS'speed'
p343
S'57600'
p344
ssaa(lp345
S'leonardo'
p346
a(dp347
g67
S'/usr/share/arduino/hardware/arduino'
p348
sS'bootloader'
p349
(dp350
S'extended_fuses'
p351
S'0xcb'
p352
sS'high_fuses'
p353
S'0xd8'
p354
sS'low_fuses'
p355
S'0xff'
p356
sS'lock_bits'
p357
S'0x2F'
p358
sS'file'
p359
S'Caterina-Leonardo.hex'
p360
sS'path'
p361
S'caterina'
p362
sS'unlock_bits'
p363
S'0x3F'
p364
ssS'build'
p365
(dp366
S'core'
p367
S'arduino'
p368
sS'f_cpu'
p369
S'16000000L'
p370
sS'vid'
p371
S'0x2341'
p372
sS'pid'
p373
S'0x8036'
p374
sS'variant'
p375
S'leonardo'
p376
sS'mcu'
p377
S'atmega32u4'
p378
ssS'name'
p379
S'Arduino Leonardo'
p380
sS'upload'
p381
(dp382
S'protocol'
p383
S'avr109'
p384
sS'maximum_size'
p385
S'28672'
p386
sS'speed'
p387
S'57600'
p388
sS'disable_flushing'
p389
S'true'
p390
ssaa(lp391
S'mini328'
p392
a(dp393
g67
S'/usr/share/arduino/hardware/arduino'
p394
sS'bootloader'
p395
(dp396
S'extended_fuses'
p397
S'0x05'
p398
sS'high_fuses'
p399
S'0xd8'
p400
sS'low_fuses'
p401
S'0xff'
p402
sS'lock_bits'
p403
S'0x0F'
p404
sS'file'
p405
S'optiboot_atmega328-Mini.hex'
p406
sS'path'
p407
S'optiboot'
p408
sS'unlock_bits'
p409
S'0x3F'
p410
ssS'build'
p411
(dp412
S'core'
p413
S'arduino'
p414
sS'mcu'
p415
S'atmega328p'
p416
sS'f_cpu'
p417
S'16000000L'
p418
sS'variant'
p419
S'eightanaloginputs'
p420
ssS'name'
p421
S'Arduino Mini w/ ATmega328'
p422
sS'upload'
p423
(dp424
S'protocol'
p425
S'arduino'
p426
sS'maximum_size'
p427
S'28672'
p428
sS'speed'
p429
S'115200'
p430
ssaa(lp431
S'mini'
p432
a(dp433
g67
S'/usr/share/arduino/hardware/arduino'
p434
sS'bootloader'
p435
(dp436
S'extended_fuses'
p437
S'0x00'
p438
sS'high_fuses'
p439
S'0xdd'
p440
sS'low_fuses'
p441
S'0xff'
p442
sS'lock_bits'
p443
S'0x0F'
p444
sS'file'
p445
S'ATmegaBOOT_168_ng.hex'
p446
sS'path'
p447
S'atmega'
p448
sS'unlock_bits'
p449
S'0x3F'
p450
ssS'build'
p451
(dp452
S'core'
p453
S'arduino'
p454
sS'mcu'
p455
S'atmega168'
p456
sS'f_cpu'
p457
S'16000000L'
p458
sS'variant'
p459
S'eightanaloginputs'
p460
ssS'name'
p461
S'Arduino Mini w/ ATmega168'
p462
sS'upload'
p463
(dp464
S'protocol'
p465
S'arduino'
p466
sS'maximum_size'
p467
S'14336'
p468
sS'speed'
p469
S'19200'
p470
ssaa(lp471
S'ethernet'
p472
a(dp473
g67
S'/usr/share/arduino/hardware/arduino'
p474
sS'bootloader'
p475
(dp476
S'extended_fuses'
p477
S'0x05'
p478
sS'high_fuses'
p479
S'0xde'
p480
sS'low_fuses'
p481
S'0xff'
p482
sS'lock_bits'
p483
S'0x0F'
p484
sS'file'
p485
S'optiboot_atmega328.hex'
p486
sS'path'
p487
S'optiboot'
p488
sS'unlock_bits'
p489
S'0x3F'
p490
ssS'build'
p491
(dp492
S'variant'
p493
S'standard'
p494
sS'mcu'
p495
S'atmega328p'
p496
sS'f_cpu'
p497
S'16000000L'
p498
sS'core'
p499
S'arduino'
p500
ssS'name'
p501
S'Arduino Ethernet'
p502
sS'upload'
p503
(dp504
S'protocol'
p505
S'arduino'
p506
sS'maximum_size'
p507
S'32256'
p508
sS'speed'
p509
S'115200'
p510
ssaa(lp511
S'fio'
p512
a(dp513
g67
S'/usr/share/arduino/hardware/arduino'
p514
sS'bootloader'
p515
(dp516
S'extended_fuses'
p517
S'0x05'
p518
sS'high_fuses'
p519
S'0xDA'
p520
sS'low_fuses'
p521
S'0xFF'
p522
sS'lock_bits'
p523
S'0x0F'
p524
sS'file'
p525
S'ATmegaBOOT_168_atmega328_pro_8MHz.hex'
p526
sS'path'
p527
S'arduino:atmega'
p528
sS'unlock_bits'
p529
S'0x3F'
p530
ssS'build'
p531
(dp532
S'core'
p533
S'arduino'
p534
sS'mcu'
p535
S'atmega328p'
p536
sS'f_cpu'
p537
S'8000000L'
p538
sS'variant'
p539
S'eightanaloginputs'
p540
ssS'name'
p541
S'Arduino Fio'
p542
sS'upload'
p543
(dp544
S'protocol'
p545
S'arduino'
p546
sS'maximum_size'
p547
S'30720'
p548
sS'speed'
p549
S'57600'
p550
ssaa(lp551
S'bt328'
p552
a(dp553
g67
S'/usr/share/arduino/hardware/arduino'
p554
sS'bootloader'
p555
(dp556
S'extended_fuses'
p557
S'0x05'
p558
sS'high_fuses'
p559
S'0xd8'
p560
sS'low_fuses'
p561
S'0xff'
p562
sS'lock_bits'
p563
S'0x0F'
p564
sS'file'
p565
S'ATmegaBOOT_168_atmega328_bt.hex'
p566
sS'path'
p567
S'bt'
p568
sS'unlock_bits'
p569
S'0x3F'
p570
ssS'build'
p571
(dp572
S'core'
p573
S'arduino'
p574
sS'mcu'
p575
S'atmega328p'
p576
sS'f_cpu'
p577
S'16000000L'
p578
sS'variant'
p579
S'eightanaloginputs'
p580
ssS'name'
p581
S'Arduino BT w/ ATmega328'
p582
sS'upload'
p583
(dp584
S'protocol'
p585
S'arduino'
p586
sS'maximum_size'
p587
S'28672'
p588
sS'speed'
p589
S'19200'
p590
sS'disable_flushing'
p591
S'true'
p592
ssaa(lp593
S'bt'
p594
a(dp595
g67
S'/usr/share/arduino/hardware/arduino'
p596
sS'bootloader'
p597
(dp598
S'extended_fuses'
p599
S'0x00'
p600
sS'high_fuses'
p601
S'0xdd'
p602
sS'low_fuses'
p603
S'0xff'
p604
sS'lock_bits'
p605
S'0x0F'
p606
sS'file'
p607
S'ATmegaBOOT_168.hex'
p608
sS'path'
p609
S'bt'
p610
sS'unlock_bits'
p611
S'0x3F'
p612
ssS'build'
p613
(dp614
S'core'
p615
S'arduino'
p616
sS'mcu'
p617
S'atmega168'
p618
sS'f_cpu'
p619
S'16000000L'
p620
sS'variant'
p621
S'eightanaloginputs'
p622
ssS'name'
p623
S'Arduino BT w/ ATmega168'
p624
sS'upload'
p625
(dp626
S'protocol'
p627
S'arduino'
p628
sS'maximum_size'
p629
S'14336'
p630
sS'speed'
p631
S'19200'
p632
sS'disable_flushing'
p633
S'true'
p634
ssaa(lp635
S'lilypad328'
p636
a(dp637
g67
S'/usr/share/arduino/hardware/arduino'
p638
sS'bootloader'
p639
(dp640
S'extended_fuses'
p641
S'0x05'
p642
sS'high_fuses'
p643
S'0xDA'
p644
sS'low_fuses'
p645
S'0xFF'
p646
sS'lock_bits'
p647
S'0x0F'
p648
sS'file'
p649
S'ATmegaBOOT_168_atmega328_pro_8MHz.hex'
p650
sS'path'
p651
S'atmega'
p652
sS'unlock_bits'
p653
S'0x3F'
p654
ssS'build'
p655
(dp656
S'core'
p657
S'arduino'
p658
sS'mcu'
p659
S'atmega328p'
p660
sS'f_cpu'
p661
S'8000000L'
p662
sS'variant'
p663
S'standard'
p664
ssS'name'
p665
S'LilyPad Arduino w/ ATmega328'
p666
sS'upload'
p667
(dp668
S'protocol'
p669
S'arduino'
p670
sS'maximum_size'
p671
S'30720'
p672
sS'speed'
p673
S'57600'
p674
ssaa(lp675
S'lilypad'
p676
a(dp677
g67
S'/usr/share/arduino/hardware/arduino'
p678
sS'bootloader'
p679
(dp680
S'extended_fuses'
p681
S'0x00'
p682
sS'high_fuses'
p683
S'0xdd'
p684
sS'low_fuses'
p685
S'0xe2'
p686
sS'lock_bits'
p687
S'0x0F'
p688
sS'file'
p689
S'LilyPadBOOT_168.hex'
p690
sS'path'
p691
S'lilypad'
p692
sS'unlock_bits'
p693
S'0x3F'
p694
ssS'build'
p695
(dp696
S'core'
p697
S'arduino'
p698
sS'mcu'
p699
S'atmega168'
p700
sS'f_cpu'
p701
S'8000000L'
p702
sS'variant'
p703
S'standard'
p704
ssS'name'
p705
S'LilyPad Arduino w/ ATmega168'
p706
sS'upload'
p707
(dp708
S'protocol'
p709
S'arduino'
p710
sS'maximum_size'
p711
S'14336'
p712
sS'speed'
p713
S'19200'
p714
ssaa(lp715
S'pro5v328'
p716
a(dp717
g67
S'/usr/share/arduino/hardware/arduino'
p718
sS'bootloader'
p719
(dp720
S'extended_fuses'
p721
S'0x05'
p722
sS'high_fuses'
p723
S'0xDA'
p724
sS'low_fuses'
p725
S'0xFF'
p726
sS'lock_bits'
p727
S'0x0F'
p728
sS'file'
p729
S'ATmegaBOOT_168_atmega328.hex'
p730
sS'path'
p731
S'atmega'
p732
sS'unlock_bits'
p733
S'0x3F'
p734
ssS'build'
p735
(dp736
S'core'
p737
S'arduino'
p738
sS'mcu'
p739
S'atmega328p'
p740
sS'f_cpu'
p741
S'16000000L'
p742
sS'variant'
p743
S'standard'
p744
ssS'name'
p745
S'Arduino Pro or Pro Mini (5V, 16 MHz) w/ ATmega328'
p746
sS'upload'
p747
(dp748
S'protocol'
p749
S'arduino'
p750
sS'maximum_size'
p751
S'30720'
p752
sS'speed'
p753
S'57600'
p754
ssaa(lp755
S'pro5v'
p756
a(dp757
g67
S'/usr/share/arduino/hardware/arduino'
p758
sS'bootloader'
p759
(dp760
S'extended_fuses'
p761
S'0x00'
p762
sS'high_fuses'
p763
S'0xdd'
p764
sS'low_fuses'
p765
S'0xff'
p766
sS'lock_bits'
p767
S'0x0F'
p768
sS'file'
p769
S'ATmegaBOOT_168_diecimila.hex'
p770
sS'path'
p771
S'atmega'
p772
sS'unlock_bits'
p773
S'0x3F'
p774
ssS'build'
p775
(dp776
S'core'
p777
S'arduino'
p778
sS'mcu'
p779
S'atmega168'
p780
sS'f_cpu'
p781
S'16000000L'
p782
sS'variant'
p783
S'standard'
p784
ssS'name'
p785
S'Arduino Pro or Pro Mini (5V, 16 MHz) w/ ATmega168'
p786
sS'upload'
p787
(dp788
S'protocol'
p789
S'arduino'
p790
sS'maximum_size'
p791
S'14336'
p792
sS'speed'
p793
S'19200'
p794
ssaa(lp795
S'pro328'
p796
a(dp797
g67
S'/usr/share/arduino/hardware/arduino'
p798
sS'bootloader'
p799
(dp800
S'extended_fuses'
p801
S'0x05'
p802
sS'high_fuses'
p803
S'0xDA'
p804
sS'low_fuses'
p805
S'0xFF'
p806
sS'lock_bits'
p807
S'0x0F'
p808
sS'file'
p809
S'ATmegaBOOT_168_atmega328_pro_8MHz.hex'
p810
sS'path'
p811
S'atmega'
p812
sS'unlock_bits'
p813
S'0x3F'
p814
ssS'build'
p815
(dp816
S'core'
p817
S'arduino'
p818
sS'mcu'
p819
S'atmega328p'
p820
sS'f_cpu'
p821
S'8000000L'
p822
sS'variant'
p823
S'standard'
p824
ssS'name'
p825
S'Arduino Pro or Pro Mini (3.3V, 8 MHz) w/ ATmega328'
p826
sS'upload'
p827
(dp828
S'protocol'
p829
S'arduino'
p830
sS'maximum_size'
p831
S'30720'
p832
sS'speed'
p833
S'57600'
p834
ssaa(lp835
S'pro'
p836
a(dp837
g67
S'/usr/share/arduino/hardware/arduino'
p838
sS'bootloader'
p839
(dp840
S'extended_fuses'
p841
S'0x00'
p842
sS'high_fuses'
p843
S'0xdd'
p844
sS'low_fuses'
p845
S'0xc6'
p846
sS'lock_bits'
p847
S'0x0F'
p848
sS'file'
p849
S'ATmegaBOOT_168_pro_8MHz.hex'
p850
sS'path'
p851
S'atmega'
p852
sS'unlock_bits'
p853
S'0x3F'
p854
ssS'build'
p855
(dp856
S'core'
p857
S'arduino'
p858
sS'mcu'
p859
S'atmega168'
p860
sS'f_cpu'
p861
S'8000000L'
p862
sS'variant'
p863
S'standard'
p864
ssS'name'
p865
S'Arduino Pro or Pro Mini (3.3V, 8 MHz) w/ ATmega168'
p866
sS'upload'
p867
(dp868
S'protocol'
p869
S'arduino'
p870
sS'maximum_size'
p871
S'14336'
p872
sS'speed'
p873
S'19200'
p874
ssaa(lp875
S'atmega168'
p876
a(dp877
g67
S'/usr/share/arduino/hardware/arduino'
p878
sS'bootloader'
p879
(dp880
S'extended_fuses'
p881
S'0x00'
p882
sS'high_fuses'
p883
S'0xdd'
p884
sS'low_fuses'
p885
S'0xff'
p886
sS'lock_bits'
p887
S'0x0F'
p888
sS'file'
p889
S'ATmegaBOOT_168_ng.hex'
p890
sS'path'
p891
S'atmega'
p892
sS'unlock_bits'
p893
S'0x3F'
p894
ssS'build'
p895
(dp896
S'core'
p897
S'arduino'
p898
sS'mcu'
p899
S'atmega168'
p900
sS'f_cpu'
p901
S'16000000L'
p902
sS'variant'
p903
S'standard'
p904
ssS'name'
p905
S'Arduino NG or older w/ ATmega168'
p906
sS'upload'
p907
(dp908
S'protocol'
p909
S'arduino'
p910
sS'maximum_size'
p911
S'14336'
p912
sS'speed'
p913
S'19200'
p914
ssaa(lp915
S'atmega8'
p916
a(dp917
g67
S'/usr/share/arduino/hardware/arduino'
p918
sS'bootloader'
p919
(dp920
S'high_fuses'
p921
S'0xca'
p922
sS'low_fuses'
p923
S'0xdf'
p924
sS'lock_bits'
p925
S'0x0F'
p926
sS'file'
p927
S'ATmegaBOOT.hex'
p928
sS'path'
p929
S'atmega8'
p930
sS'unlock_bits'
p931
S'0x3F'
p932
ssS'build'
p933
(dp934
S'core'
p935
S'arduino'
p936
sS'mcu'
p937
S'atmega8'
p938
sS'f_cpu'
p939
S'16000000L'
p940
sS'variant'
p941
S'standard'
p942
ssS'name'
p943
S'Arduino NG or older w/ ATmega8'
p944
sS'upload'
p945
(dp946
S'protocol'
p947
S'arduino'
p948
sS'maximum_size'
p949
S'7168'
p950
sS'speed'
p951
S'19200'
p952
ssaatp953
Rp954
(dp955
S'default'
p956
S'uno'
p957
sbtp958
a(S'used_libs'
p959
(lp960
S'/usr/share/arduino/libraries/SoftwareSerial'
p961
aS'/usr/share/arduino/hardware/arduino/cores/arduino'
p962
atp963
a(S'make'
p964
S'/usr/bin/make'
p965
tp966
a(S'build_dir'
p967
S'.build/mega2560'
p968
tp969
a(S'cc'
p970
S'/usr/bin/avr-gcc'
p971
tp972
a(S'cflags'
p973
g2
(g3
g4
(lp974
tp975
Rp976
tp977
a(S'cxxflags'
p978
g2
(g3
g4
(lp979
S'-fno-exceptions'
p980
atp981
Rp982
tp983
a(S'arduino_variants_dir'
p984
S'/usr/share/arduino/hardware/arduino/variants'
p985
tp986
a(S'serial'
p987
S'/usr/bin/picocom'
p988
tp989
a(S'stty'
p990
S'/bin/stty'
p991
tp992
a(S'version.txt'
p993
S'/usr/share/arduino/lib/version.txt'
p994
tp995
a(S'arduino_core_dir'
p996
g962
tp997
a(S'boards.txt'
p998
(lp999
S'/usr/share/arduino/hardware/arduino/boards.txt'
p1000
atp1001
a(S'avrdude.conf'
p1002
S'/usr/share/arduino/hardware/tools/avrdude.conf'
p1003
tp1004
a(S'deps'
p1005
g2
(g3
g4
(lp1006
S'.build/mega2560/src/dependencies.d'
p1007
aS'.build/mega2560/arduino/dependencies.d'
p1008
aS'.build/mega2560/SoftwareSerial/dependencies.d'
p1009
atp1010
Rp1011
tp1012
a.